; Function Attrs: mustprogress uwtable
define hidden void @_ZN4lean5mk_piERKNS_4nameERKNS_4exprES5_NS_11binder_infoE(ptr dead_on_unwind noalias writable writeonly sret(%"class.lean::expr") align 8 captures(none) initializes((0, 8)) %0, ptr noundef nonnull readonly align 8 captures(none) dereferenceable(8) %1, ptr noundef nonnull readonly align 8 captures(none) dereferenceable(8) %2, ptr noundef nonnull readonly align 8 captures(none) dereferenceable(8) %3, i32 noundef %4) local_unnamed_addr #0 {
  %6 = load ptr, ptr %1, align 8, !tbaa !10
  %7 = ptrtoint ptr %6 to i64
  %8 = and i64 %7, 1
  %.not.i.i = icmp eq i64 %8, 0
  br i1 %.not.i.i, label %9, label %_ZNK4lean10object_ref10to_obj_argEv.exit

9:                                                ; preds = %5
  %.val.i.i.i = load i32, ptr %6, align 4, !tbaa !21
  %10 = icmp sgt i32 %.val.i.i.i, 0
  br i1 %10, label %11, label %13, !prof !24

11:                                               ; preds = %9
  %12 = add nuw nsw i32 %.val.i.i.i, 1
  store i32 %12, ptr %6, align 4, !tbaa !21
  br label %_ZNK4lean10object_ref10to_obj_argEv.exit

13:                                               ; preds = %9
  %.not.i.i.i = icmp eq i32 %.val.i.i.i, 0
  br i1 %.not.i.i.i, label %_ZNK4lean10object_ref10to_obj_argEv.exit, label %14

14:                                               ; preds = %13
  tail call void @lean_inc_ref_cold(ptr noundef nonnull %6)
  %.pre.i = load ptr, ptr %1, align 8, !tbaa !10
  br label %_ZNK4lean10object_ref10to_obj_argEv.exit

_ZNK4lean10object_ref10to_obj_argEv.exit:         ; preds = %5, %11, %13, %14
  %15 = phi ptr [ %6, %5 ], [ %6, %11 ], [ %6, %13 ], [ %.pre.i, %14 ]
  %16 = load ptr, ptr %2, align 8, !tbaa !10
  %17 = ptrtoint ptr %16 to i64
  %18 = and i64 %17, 1
  %.not.i.i3 = icmp eq i64 %18, 0
  br i1 %.not.i.i3, label %19, label %_ZNK4lean10object_ref10to_obj_argEv.exit7

19:                                               ; preds = %_ZNK4lean10object_ref10to_obj_argEv.exit
  %.val.i.i.i4 = load i32, ptr %16, align 4, !tbaa !21
  %20 = icmp sgt i32 %.val.i.i.i4, 0
  br i1 %20, label %21, label %23, !prof !24

21:                                               ; preds = %19
  %22 = add nuw nsw i32 %.val.i.i.i4, 1
  store i32 %22, ptr %16, align 4, !tbaa !21
  br label %_ZNK4lean10object_ref10to_obj_argEv.exit7

23:                                               ; preds = %19
  %.not.i.i.i5 = icmp eq i32 %.val.i.i.i4, 0
  br i1 %.not.i.i.i5, label %_ZNK4lean10object_ref10to_obj_argEv.exit7, label %24

24:                                               ; preds = %23
  tail call void @lean_inc_ref_cold(ptr noundef nonnull %16)
  %.pre.i6 = load ptr, ptr %2, align 8, !tbaa !10
  br label %_ZNK4lean10object_ref10to_obj_argEv.exit7

_ZNK4lean10object_ref10to_obj_argEv.exit7:        ; preds = %_ZNK4lean10object_ref10to_obj_argEv.exit, %21, %23, %24
  %25 = phi ptr [ %16, %_ZNK4lean10object_ref10to_obj_argEv.exit ], [ %16, %21 ], [ %16, %23 ], [ %.pre.i6, %24 ]
  %26 = load ptr, ptr %3, align 8, !tbaa !10
  %27 = ptrtoint ptr %26 to i64
  %28 = and i64 %27, 1
  %.not.i.i8 = icmp eq i64 %28, 0
  br i1 %.not.i.i8, label %29, label %_ZNK4lean10object_ref10to_obj_argEv.exit12

29:                                               ; preds = %_ZNK4lean10object_ref10to_obj_argEv.exit7
  %.val.i.i.i9 = load i32, ptr %26, align 4, !tbaa !21
  %30 = icmp sgt i32 %.val.i.i.i9, 0
  br i1 %30, label %31, label %33, !prof !24

31:                                               ; preds = %29
  %32 = add nuw nsw i32 %.val.i.i.i9, 1
  store i32 %32, ptr %26, align 4, !tbaa !21
  br label %_ZNK4lean10object_ref10to_obj_argEv.exit12

33:                                               ; preds = %29
  %.not.i.i.i10 = icmp eq i32 %.val.i.i.i9, 0
  br i1 %.not.i.i.i10, label %_ZNK4lean10object_ref10to_obj_argEv.exit12, label %34

34:                                               ; preds = %33
  tail call void @lean_inc_ref_cold(ptr noundef nonnull %26)
  %.pre.i11 = load ptr, ptr %3, align 8, !tbaa !10
  br label %_ZNK4lean10object_ref10to_obj_argEv.exit12

_ZNK4lean10object_ref10to_obj_argEv.exit12:       ; preds = %_ZNK4lean10object_ref10to_obj_argEv.exit7, %31, %33, %34
  %35 = phi ptr [ %26, %_ZNK4lean10object_ref10to_obj_argEv.exit7 ], [ %26, %31 ], [ %26, %33 ], [ %.pre.i11, %34 ]
  %36 = trunc i32 %4 to i8
  %37 = tail call ptr @lean_expr_mk_forall(ptr noundef %15, ptr noundef %25, ptr noundef %35, i8 noundef zeroext %36)
  store ptr %37, ptr %0, align 8, !tbaa !10
  ret void
}